target datalayout = "e-m:e-p270:32:32-p271:32:32-p272:64:64-i64:64-i128:128-f80:128-n8:16:32:64-S128"
target triple = "x86_64-pc-linux-gnu"

%struct.jit_State = type { %struct.GCtrace, ptr, ptr, ptr, ptr, ptr, ptr, i32, i32, i32, i8, i8, %struct.IRType1, i8, %struct.FoldState, ptr, i32, i32, i32, i32, i32, i32, i32, [1 x i32], [5 x %union.TValue], [3 x %union.TValue], ptr, i32, i32, i32, i32, ptr, ptr, i32, i32, i8, ptr, i32, i32, i16, [101 x i16], [258 x i32], [15 x i32], [16 x ptr], [64 x %struct.HotPenalty], i32, [16 x %struct.BPropEntry], i32, %struct.ScEvEntry, ptr, i32, i32, i32, ptr, i32, i32, ptr, ptr, ptr, i64, i64, %union.TValue, ptr, i32, i32 }
%struct.GCtrace = type { %struct.GCRef, i8, i8, i16, i32, i32, %struct.GCRef, ptr, i32, i32, ptr, ptr, %struct.GCRef, %struct.MRef, i32, i32, ptr, i32, i16, i16, i16, i16, i16, i16, i16, i8, i8, i8, i8 }
%struct.GCRef = type { i64 }
%struct.MRef = type { i64 }
%struct.IRType1 = type { i8 }
%struct.FoldState = type { %union.IRIns, [2 x %union.IRIns], [2 x %union.IRIns] }
%union.IRIns = type { %struct.GCRef }
%struct.HotPenalty = type { %struct.MRef, i16, i16 }
%struct.BPropEntry = type { i16, i16, i32 }
%struct.ScEvEntry = type { %struct.MRef, i16, i16, i16, i16, %struct.IRType1, i8 }
%union.TValue = type { i64 }
%struct.lua_State = type { %struct.GCRef, i8, i8, i8, i8, %struct.MRef, %struct.GCRef, ptr, ptr, %struct.MRef, %struct.MRef, %struct.GCRef, %struct.GCRef, ptr, i32 }
%struct.GG_State = type { %struct.lua_State, %struct.global_State, %struct.jit_State, [64 x i16], [243 x ptr], [57 x i32] }
%struct.global_State = type { ptr, ptr, %struct.GCState, %struct.GCstr, i8, i8, i8, i8, %struct.StrInternState, i32, %struct.GCRef, %struct.SBuf, %union.TValue, %union.TValue, %struct.Node, %union.TValue, %struct.GCupval, i32, i32, ptr, ptr, ptr, i32, i32, %struct.GCRef, %struct.MRef, %struct.MRef, %struct.PRNGState, [39 x %struct.GCRef] }
%struct.GCState = type { i64, i64, i8, i8, i8, i8, i32, %struct.GCRef, %struct.MRef, %struct.GCRef, %struct.GCRef, %struct.GCRef, %struct.GCRef, i64, i64, i32, i32, %struct.MRef }
%struct.GCstr = type { %struct.GCRef, i8, i8, i8, i8, i32, i32, i32 }
%struct.StrInternState = type { ptr, i32, i32, i32, i8, i8, i8, i8, i64 }
%struct.SBuf = type { ptr, ptr, ptr, %struct.MRef }
%struct.Node = type { %union.TValue, %union.TValue, %struct.MRef }
%struct.GCupval = type { %struct.GCRef, i8, i8, i8, i8, %union.anon, %struct.MRef, i32 }
%union.anon = type { %struct.anon.3 }
%struct.anon.3 = type { %struct.GCRef, %struct.GCRef }
%struct.PRNGState = type { [4 x i64] }

; Function Attrs: alwaysinline nounwind uwtable
define internal void @lj_mem_free(ptr noundef %0, ptr noundef %1, i64 noundef %2) #1 {
  %4 = alloca ptr, align 8
  %5 = alloca ptr, align 8
  %6 = alloca i64, align 8
  store ptr %0, ptr %4, align 8, !tbaa !47
  store ptr %1, ptr %5, align 8, !tbaa !52
  store i64 %2, ptr %6, align 8, !tbaa !37
  %7 = load i64, ptr %6, align 8, !tbaa !37
  %8 = load ptr, ptr %4, align 8, !tbaa !47
  %9 = getelementptr inbounds nuw %struct.global_State, ptr %8, i32 0, i32 2
  %10 = getelementptr inbounds nuw %struct.GCState, ptr %9, i32 0, i32 0
  %11 = load i64, ptr %10, align 8, !tbaa !53
  %12 = sub i64 %11, %7
  store i64 %12, ptr %10, align 8, !tbaa !53
  %13 = load ptr, ptr %4, align 8, !tbaa !47
  %14 = getelementptr inbounds nuw %struct.global_State, ptr %13, i32 0, i32 0
  %15 = load ptr, ptr %14, align 8, !tbaa !62
  %16 = load ptr, ptr %4, align 8, !tbaa !47
  %17 = getelementptr inbounds nuw %struct.global_State, ptr %16, i32 0, i32 1
  %18 = load ptr, ptr %17, align 8, !tbaa !63
  %19 = load ptr, ptr %5, align 8, !tbaa !52
  %20 = load i64, ptr %6, align 8, !tbaa !37
  %21 = call ptr %15(ptr noundef %18, ptr noundef %19, i64 noundef %20, i64 noundef 0)
  ret void
}

; Function Attrs: nounwind uwtable
define hidden void @lj_trace_free(ptr noundef %0, ptr noundef %1) #3 {
  %3 = alloca ptr, align 8
  %4 = alloca ptr, align 8
  %5 = alloca ptr, align 8
  store ptr %0, ptr %3, align 8, !tbaa !47
  store ptr %1, ptr %4, align 8, !tbaa !36
  call void @llvm.lifetime.start.p0(i64 8, ptr %5) #11
  %6 = load ptr, ptr %3, align 8, !tbaa !47
  %7 = getelementptr inbounds i8, ptr %6, i64 -96
  %8 = getelementptr inbounds nuw %struct.GG_State, ptr %7, i32 0, i32 2
  store ptr %8, ptr %5, align 8, !tbaa !4
  %9 = load ptr, ptr %4, align 8, !tbaa !36
  %10 = getelementptr inbounds nuw %struct.GCtrace, ptr %9, i32 0, i32 20
  %11 = load i16, ptr %10, align 8, !tbaa !45
  %12 = icmp ne i16 %11, 0
  br i1 %12, label %13, label %39

13:                                               ; preds = %2
  %14 = load ptr, ptr %4, align 8, !tbaa !36
  %15 = getelementptr inbounds nuw %struct.GCtrace, ptr %14, i32 0, i32 20
  %16 = load i16, ptr %15, align 8, !tbaa !45
  %17 = zext i16 %16 to i32
  %18 = load ptr, ptr %5, align 8, !tbaa !4
  %19 = getelementptr inbounds nuw %struct.jit_State, ptr %18, i32 0, i32 37
  %20 = load i32, ptr %19, align 8, !tbaa !49
  %21 = icmp ult i32 %17, %20
  br i1 %21, label %22, label %29

22:                                               ; preds = %13
  %23 = load ptr, ptr %4, align 8, !tbaa !36
  %24 = getelementptr inbounds nuw %struct.GCtrace, ptr %23, i32 0, i32 20
  %25 = load i16, ptr %24, align 8, !tbaa !45
  %26 = zext i16 %25 to i32
  %27 = load ptr, ptr %5, align 8, !tbaa !4
  %28 = getelementptr inbounds nuw %struct.jit_State, ptr %27, i32 0, i32 37
  store i32 %26, ptr %28, align 8, !tbaa !49
  br label %29

29:                                               ; preds = %22, %13
  %30 = load ptr, ptr %5, align 8, !tbaa !4
  %31 = getelementptr inbounds nuw %struct.jit_State, ptr %30, i32 0, i32 36
  %32 = load ptr, ptr %31, align 8, !tbaa !50
  %33 = load ptr, ptr %4, align 8, !tbaa !36
  %34 = getelementptr inbounds nuw %struct.GCtrace, ptr %33, i32 0, i32 20
  %35 = load i16, ptr %34, align 8, !tbaa !45
  %36 = zext i16 %35 to i64
  %37 = getelementptr inbounds nuw %struct.GCRef, ptr %32, i64 %36
  %38 = getelementptr inbounds nuw %struct.GCRef, ptr %37, i32 0, i32 0
  store i64 0, ptr %38, align 8, !tbaa !51
  br label %39

39:                                               ; preds = %29, %2
  %40 = load ptr, ptr %3, align 8, !tbaa !47
  %41 = load ptr, ptr %4, align 8, !tbaa !36
  %42 = load ptr, ptr %4, align 8, !tbaa !36
  %43 = getelementptr inbounds nuw %struct.GCtrace, ptr %42, i32 0, i32 4
  %44 = load i32, ptr %43, align 4, !tbaa !38
  %45 = load ptr, ptr %4, align 8, !tbaa !36
  %46 = getelementptr inbounds nuw %struct.GCtrace, ptr %45, i32 0, i32 8
  %47 = load i32, ptr %46, align 8, !tbaa !39
  %48 = sub i32 %44, %47
  %49 = zext i32 %48 to i64
  %50 = mul i64 %49, 8
  %51 = add i64 120, %50
  %52 = load ptr, ptr %4, align 8, !tbaa !36
  %53 = getelementptr inbounds nuw %struct.GCtrace, ptr %52, i32 0, i32 3
  %54 = load i16, ptr %53, align 2, !tbaa !40
  %55 = zext i16 %54 to i64
  %56 = mul i64 %55, 12
  %57 = add i64 %51, %56
  %58 = load ptr, ptr %4, align 8, !tbaa !36
  %59 = getelementptr inbounds nuw %struct.GCtrace, ptr %58, i32 0, i32 9
  %60 = load i32, ptr %59, align 4, !tbaa !41
  %61 = zext i32 %60 to i64
  %62 = mul i64 %61, 4
  %63 = add i64 %57, %62
  call void @lj_mem_free(ptr noundef %40, ptr noundef %41, i64 noundef %63)
  call void @llvm.lifetime.end.p0(i64 8, ptr %5) #11
  ret void
}