; Function Attrs: nounwind uwtable
define hidden void @lj_trace_free(ptr noundef captures(none) %0, ptr noundef %1) local_unnamed_addr #2 {
  %3 = getelementptr inbounds nuw i8, ptr %1, i64 104
  %4 = load i16, ptr %3, align 8, !tbaa !37
  %.not = icmp eq i16 %4, 0
  br i1 %.not, label %16, label %5

5:                                                ; preds = %2
  %6 = zext i16 %4 to i32
  %7 = getelementptr inbounds nuw i8, ptr %0, i64 1128
  %8 = load i32, ptr %7, align 8, !tbaa !39
  %9 = icmp ugt i32 %8, %6
  br i1 %9, label %10, label %11

10:                                               ; preds = %5
  store i32 %6, ptr %7, align 8, !tbaa !39
  br label %11

11:                                               ; preds = %10, %5
  %12 = getelementptr inbounds nuw i8, ptr %0, i64 1120
  %13 = load ptr, ptr %12, align 8, !tbaa !40
  %14 = zext i16 %4 to i64
  %15 = getelementptr inbounds nuw %struct.GCRef, ptr %13, i64 %14
  store i64 0, ptr %15, align 8, !tbaa !41
  br label %16

16:                                               ; preds = %11, %2
  %17 = getelementptr inbounds nuw i8, ptr %1, i64 12
  %18 = load i32, ptr %17, align 4, !tbaa !31
  %19 = getelementptr inbounds nuw i8, ptr %1, i64 40
  %20 = load i32, ptr %19, align 8, !tbaa !32
  %21 = sub i32 %18, %20
  %22 = zext i32 %21 to i64
  %23 = shl nuw nsw i64 %22, 3
  %24 = add nuw nsw i64 %23, 120
  %25 = getelementptr inbounds nuw i8, ptr %1, i64 10
  %26 = load i16, ptr %25, align 2, !tbaa !33
  %27 = zext i16 %26 to i64
  %28 = mul nuw nsw i64 %27, 12
  %29 = add nuw nsw i64 %24, %28
  %30 = getelementptr inbounds nuw i8, ptr %1, i64 44
  %31 = load i32, ptr %30, align 4, !tbaa !34
  %32 = zext i32 %31 to i64
  %33 = shl nuw nsw i64 %32, 2
  %34 = add nuw nsw i64 %29, %33
  %35 = getelementptr inbounds nuw i8, ptr %0, i64 16
  %36 = load i64, ptr %35, align 8, !tbaa !42
  %37 = sub i64 %36, %34
  store i64 %37, ptr %35, align 8, !tbaa !42
  %38 = load ptr, ptr %0, align 8, !tbaa !51
  %39 = getelementptr inbounds nuw i8, ptr %0, i64 8
  %40 = load ptr, ptr %39, align 8, !tbaa !52
  %41 = tail call ptr %38(ptr noundef %40, ptr noundef nonnull %1, i64 noundef range(i64 0, 51540394081) %34, i64 noundef 0) #14
  ret void
}